target datalayout = "e-m:e-p270:32:32-p271:32:32-p272:64:64-i64:64-i128:128-f80:128-n8:16:32:64-S128"
target triple = "x86_64-pc-linux-gnu"

%struct.lv_color_t = type { i8, i8, i8 }
%struct.lv_draw_arc_dsc_t = type { %struct.lv_draw_dsc_base_t, %struct.lv_color_t, i32, float, float, %struct.lv_point_t, i16, ptr, i8, i8 }
%struct.lv_draw_dsc_base_t = type { ptr, i32, i32, i32, ptr, i64, ptr }
%struct.lv_point_t = type { i32, i32 }

; Function Attrs: inlinehint nounwind uwtable
define internal void @lv_memzero(ptr noundef %0, i64 noundef %1) #1 {
  %3 = alloca ptr, align 8
  %4 = alloca i64, align 8
  store ptr %0, ptr %3, align 8, !tbaa !3
  store i64 %1, ptr %4, align 8, !tbaa !20
  %5 = load ptr, ptr %3, align 8, !tbaa !3
  %6 = load i64, ptr %4, align 8, !tbaa !20
  call void @lv_memset(ptr noundef %5, i8 noundef zeroext 0, i64 noundef %6)
  ret void
}

; Function Attrs: nounwind uwtable
define void @lv_draw_arc_dsc_init(ptr noundef %0) #0 {
  %2 = alloca ptr, align 8
  %3 = alloca %struct.lv_color_t, align 1
  store ptr %0, ptr %2, align 8, !tbaa !3
  %4 = load ptr, ptr %2, align 8, !tbaa !3
  call void @lv_memzero(ptr noundef %4, i64 noundef 96)
  %5 = load ptr, ptr %2, align 8, !tbaa !3
  %6 = getelementptr inbounds nuw %struct.lv_draw_arc_dsc_t, ptr %5, i32 0, i32 2
  store i32 1, ptr %6, align 4, !tbaa !7
  %7 = load ptr, ptr %2, align 8, !tbaa !3
  %8 = getelementptr inbounds nuw %struct.lv_draw_arc_dsc_t, ptr %7, i32 0, i32 8
  store i8 -1, ptr %8, align 8, !tbaa !16
  %9 = load ptr, ptr %2, align 8, !tbaa !3
  %10 = getelementptr inbounds nuw %struct.lv_draw_arc_dsc_t, ptr %9, i32 0, i32 1
  call void @llvm.lifetime.start.p0(i64 3, ptr %3) #5
  %11 = call i24 @lv_color_black()
  store i24 %11, ptr %3, align 1
  call void @llvm.memcpy.p0.p0.i64(ptr align 8 %10, ptr align 1 %3, i64 3, i1 false), !tbaa.struct !17
  call void @llvm.lifetime.end.p0(i64 3, ptr %3) #5
  %12 = load ptr, ptr %2, align 8, !tbaa !3
  %13 = getelementptr inbounds nuw %struct.lv_draw_arc_dsc_t, ptr %12, i32 0, i32 0
  %14 = getelementptr inbounds nuw %struct.lv_draw_dsc_base_t, ptr %13, i32 0, i32 5
  store i64 96, ptr %14, align 8, !tbaa !19
  ret void
}