; Function Attrs: nounwind uwtable
define void @lv_draw_arc_dsc_init(ptr noundef %0) local_unnamed_addr #0 {
  tail call void @lv_memset(ptr noundef %0, i8 noundef zeroext 0, i64 noundef 96) #4
  %2 = getelementptr inbounds nuw i8, ptr %0, i64 52
  store i32 1, ptr %2, align 4, !tbaa !3
  %3 = getelementptr inbounds nuw i8, ptr %0, i64 88
  store i8 -1, ptr %3, align 8, !tbaa !15
  %4 = getelementptr inbounds nuw i8, ptr %0, i64 48
  %5 = tail call i24 @lv_color_black() #4
  store i24 %5, ptr %4, align 8
  %6 = getelementptr inbounds nuw i8, ptr %0, i64 32
  store i64 96, ptr %6, align 8, !tbaa !16
  ret void
}